target datalayout = "e-m:e-p270:32:32-p271:32:32-p272:64:64-i64:64-i128:128-f80:128-n8:16:32:64-S128"
target triple = "x86_64-pc-linux-gnu"

%"class.cv::Mat" = type { i32, i32, i32, i32, ptr, ptr, ptr, ptr, ptr, ptr, %"struct.cv::MatSize", %"struct.cv::MatStep" }
%"struct.cv::MatSize" = type { ptr }
%"struct.cv::MatStep" = type { ptr, [2 x i64] }
%"class.cv::Point_" = type { float, float }
%"class.cv::_InputArray" = type { i32, ptr, %"class.cv::Size_" }
%"class.cv::Size_" = type { i32, i32 }
%"class.cv::RotatedRect" = type { %"class.cv::Point_", %"class.cv::Size_.1", float }
%"class.cv::Size_.1" = type { float, float }
%"class.cv::AutoBuffer" = type { ptr, i64, [136 x double] }
%struct.CvPoint2D32f = type { float, float }
%struct.CvBox2D = type { %struct.CvPoint2D32f, %struct.CvSize2D32f, float }
%struct.CvSize2D32f = type { float, float }

; Function Attrs: inlinehint mustprogress nounwind uwtable
define linkonce_odr hidden void @_ZN2cv10AutoBufferIdLm136EE10deallocateEv(ptr noundef nonnull align 8 dereferenceable(1104) %0) #4 comdat align 2 {
  %2 = alloca ptr, align 8
  store ptr %0, ptr %2, align 8, !tbaa !122
  %3 = load ptr, ptr %2, align 8
  %4 = getelementptr inbounds nuw %"class.cv::AutoBuffer", ptr %3, i32 0, i32 0
  %5 = load ptr, ptr %4, align 8, !tbaa !124
  %6 = getelementptr inbounds nuw %"class.cv::AutoBuffer", ptr %3, i32 0, i32 2
  %7 = getelementptr inbounds [136 x double], ptr %6, i64 0, i64 0
  %8 = icmp ne ptr %5, %7
  br i1 %8, label %9, label %19

9:                                                ; preds = %1
  %10 = getelementptr inbounds nuw %"class.cv::AutoBuffer", ptr %3, i32 0, i32 0
  %11 = load ptr, ptr %10, align 8, !tbaa !124
  %12 = icmp eq ptr %11, null
  br i1 %12, label %14, label %13

13:                                               ; preds = %9
  call void @_ZdaPv(ptr noundef %11) #22
  br label %14

14:                                               ; preds = %13, %9
  %15 = getelementptr inbounds nuw %"class.cv::AutoBuffer", ptr %3, i32 0, i32 2
  %16 = getelementptr inbounds [136 x double], ptr %15, i64 0, i64 0
  %17 = getelementptr inbounds nuw %"class.cv::AutoBuffer", ptr %3, i32 0, i32 0
  store ptr %16, ptr %17, align 8, !tbaa !124
  %18 = getelementptr inbounds nuw %"class.cv::AutoBuffer", ptr %3, i32 0, i32 1
  store i64 136, ptr %18, align 8, !tbaa !126
  br label %19

19:                                               ; preds = %14, %1
  ret void
}

; Function Attrs: mustprogress nounwind uwtable
define linkonce_odr hidden <2 x float> @_Z11cvSize2D32fIfE11CvSize2D32fRKN2cv5Size_IT_EE(ptr noundef nonnull align 4 dereferenceable(8) %0) #12 comdat {
  %2 = alloca %struct.CvSize2D32f, align 4
  %3 = alloca ptr, align 8
  store ptr %0, ptr %3, align 8, !tbaa !169
  %4 = getelementptr inbounds nuw %struct.CvSize2D32f, ptr %2, i32 0, i32 0
  %5 = load ptr, ptr %3, align 8, !tbaa !169
  %6 = getelementptr inbounds nuw %"class.cv::Size_.1", ptr %5, i32 0, i32 0
  %7 = load float, ptr %6, align 4, !tbaa !171
  store float %7, ptr %4, align 4, !tbaa !179
  %8 = getelementptr inbounds nuw %struct.CvSize2D32f, ptr %2, i32 0, i32 1
  %9 = load ptr, ptr %3, align 8, !tbaa !169
  %10 = getelementptr inbounds nuw %"class.cv::Size_.1", ptr %9, i32 0, i32 1
  %11 = load float, ptr %10, align 4, !tbaa !172
  store float %11, ptr %8, align 4, !tbaa !180
  %12 = load <2 x float>, ptr %2, align 4
  ret <2 x float> %12
}

; Function Attrs: mustprogress nounwind uwtable
define linkonce_odr hidden <2 x float> @_Z12cvPoint2D32fIfE12CvPoint2D32fRKN2cv6Point_IT_EE(ptr noundef nonnull align 4 dereferenceable(8) %0) #12 comdat {
  %2 = alloca %struct.CvPoint2D32f, align 4
  %3 = alloca ptr, align 8
  store ptr %0, ptr %3, align 8, !tbaa !8
  %4 = getelementptr inbounds nuw %struct.CvPoint2D32f, ptr %2, i32 0, i32 0
  %5 = load ptr, ptr %3, align 8, !tbaa !8
  %6 = getelementptr inbounds nuw %"class.cv::Point_", ptr %5, i32 0, i32 0
  %7 = load float, ptr %6, align 4, !tbaa !17
  store float %7, ptr %4, align 4, !tbaa !127
  %8 = getelementptr inbounds nuw %struct.CvPoint2D32f, ptr %2, i32 0, i32 1
  %9 = load ptr, ptr %3, align 8, !tbaa !8
  %10 = getelementptr inbounds nuw %"class.cv::Point_", ptr %9, i32 0, i32 1
  %11 = load float, ptr %10, align 4, !tbaa !14
  store float %11, ptr %8, align 4, !tbaa !129
  %12 = load <2 x float>, ptr %2, align 4
  ret <2 x float> %12
}

; Function Attrs: inlinehint mustprogress nounwind uwtable
define linkonce_odr hidden void @_ZN2cv11_InputArray4initEiPKv(ptr noundef nonnull align 8 dereferenceable(24) %0, i32 noundef %1, ptr noundef %2) #4 comdat align 2 {
  %4 = alloca ptr, align 8
  %5 = alloca i32, align 4
  %6 = alloca ptr, align 8
  store ptr %0, ptr %4, align 8, !tbaa !3
  store i32 %1, ptr %5, align 4, !tbaa !12
  store ptr %2, ptr %6, align 8, !tbaa !119
  %7 = load ptr, ptr %4, align 8
  %8 = load i32, ptr %5, align 4, !tbaa !12
  %9 = getelementptr inbounds nuw %"class.cv::_InputArray", ptr %7, i32 0, i32 0
  store i32 %8, ptr %9, align 8, !tbaa !168
  %10 = load ptr, ptr %6, align 8, !tbaa !119
  %11 = getelementptr inbounds nuw %"class.cv::_InputArray", ptr %7, i32 0, i32 1
  store ptr %10, ptr %11, align 8, !tbaa !29
  ret void
}

; Function Attrs: inlinehint mustprogress nounwind uwtable
define linkonce_odr hidden void @_ZN2cv5Size_IiEC2Ev(ptr noundef nonnull align 4 dereferenceable(8) %0) unnamed_addr #4 comdat align 2 {
  %2 = alloca ptr, align 8
  store ptr %0, ptr %2, align 8, !tbaa !164
  %3 = load ptr, ptr %2, align 8
  %4 = getelementptr inbounds nuw %"class.cv::Size_", ptr %3, i32 0, i32 0
  store i32 0, ptr %4, align 4, !tbaa !166
  %5 = getelementptr inbounds nuw %"class.cv::Size_", ptr %3, i32 0, i32 1
  store i32 0, ptr %5, align 4, !tbaa !167
  ret void
}

; Function Attrs: inlinehint mustprogress nounwind uwtable
define linkonce_odr hidden void @_ZN2cv10AutoBufferIdLm136EED2Ev(ptr noundef nonnull align 8 dereferenceable(1104) %0) unnamed_addr #4 comdat align 2 {
  %2 = alloca ptr, align 8
  store ptr %0, ptr %2, align 8, !tbaa !122
  %3 = load ptr, ptr %2, align 8
  call void @_ZN2cv10AutoBufferIdLm136EE10deallocateEv(ptr noundef nonnull align 8 dereferenceable(1104) %3)
  ret void
}

; Function Attrs: inlinehint mustprogress nounwind uwtable
define linkonce_odr hidden void @_ZN2cv11_InputArrayD2Ev(ptr noundef nonnull align 8 dereferenceable(24) %0) unnamed_addr #4 comdat align 2 {
  %2 = alloca ptr, align 8
  store ptr %0, ptr %2, align 8, !tbaa !3
  ret void
}

; Function Attrs: inlinehint mustprogress uwtable
define internal void @_ZL7cvBox2DRKN2cv11RotatedRectE(ptr dead_on_unwind noalias writable sret(%struct.CvBox2D) align 4 %0, ptr noundef nonnull align 4 dereferenceable(20) %1) #9 {
  %3 = alloca ptr, align 8
  %4 = alloca %struct.CvPoint2D32f, align 4
  %5 = alloca %struct.CvSize2D32f, align 4
  store ptr %1, ptr %3, align 8, !tbaa !92
  call void @llvm.lifetime.start.p0(i64 8, ptr %4) #18
  %6 = load ptr, ptr %3, align 8, !tbaa !92
  %7 = getelementptr inbounds nuw %"class.cv::RotatedRect", ptr %6, i32 0, i32 0
  %8 = call <2 x float> @_Z12cvPoint2D32fIfE12CvPoint2D32fRKN2cv6Point_IT_EE(ptr noundef nonnull align 4 dereferenceable(8) %7)
  store <2 x float> %8, ptr %4, align 4
  %9 = getelementptr inbounds nuw %struct.CvBox2D, ptr %0, i32 0, i32 0
  call void @llvm.memcpy.p0.p0.i64(ptr align 4 %9, ptr align 4 %4, i64 8, i1 false), !tbaa.struct !25
  call void @llvm.lifetime.end.p0(i64 8, ptr %4) #18
  call void @llvm.lifetime.start.p0(i64 8, ptr %5) #18
  %10 = load ptr, ptr %3, align 8, !tbaa !92
  %11 = getelementptr inbounds nuw %"class.cv::RotatedRect", ptr %10, i32 0, i32 1
  %12 = call <2 x float> @_Z11cvSize2D32fIfE11CvSize2D32fRKN2cv5Size_IT_EE(ptr noundef nonnull align 4 dereferenceable(8) %11)
  store <2 x float> %12, ptr %5, align 4
  %13 = getelementptr inbounds nuw %struct.CvBox2D, ptr %0, i32 0, i32 1
  call void @llvm.memcpy.p0.p0.i64(ptr align 4 %13, ptr align 4 %5, i64 8, i1 false), !tbaa.struct !25
  call void @llvm.lifetime.end.p0(i64 8, ptr %5) #18
  %14 = load ptr, ptr %3, align 8, !tbaa !92
  %15 = getelementptr inbounds nuw %"class.cv::RotatedRect", ptr %14, i32 0, i32 2
  %16 = load float, ptr %15, align 4, !tbaa !77
  %17 = getelementptr inbounds nuw %struct.CvBox2D, ptr %0, i32 0, i32 2
  store float %16, ptr %17, align 4, !tbaa !161
  ret void
}

; Function Attrs: inlinehint mustprogress uwtable
define linkonce_odr hidden void @_ZN2cv11_InputArrayC2ERKNS_3MatE(ptr noundef nonnull align 8 dereferenceable(24) %0, ptr noundef nonnull align 8 dereferenceable(96) %1) unnamed_addr #3 comdat align 2 {
  %3 = alloca ptr, align 8
  %4 = alloca ptr, align 8
  store ptr %0, ptr %3, align 8, !tbaa !3
  store ptr %1, ptr %4, align 8, !tbaa !32
  %5 = load ptr, ptr %3, align 8
  %6 = getelementptr inbounds nuw %"class.cv::_InputArray", ptr %5, i32 0, i32 2
  call void @_ZN2cv5Size_IiEC2Ev(ptr noundef nonnull align 4 dereferenceable(8) %6)
  %7 = load ptr, ptr %4, align 8, !tbaa !32
  call void @_ZN2cv11_InputArray4initEiPKv(ptr noundef nonnull align 8 dereferenceable(24) %5, i32 noundef 16842752, ptr noundef %7)
  ret void
}

; Function Attrs: inlinehint mustprogress nounwind uwtable
define linkonce_odr hidden void @_ZN2cv10AutoBufferIdLm136EEC2Ev(ptr noundef nonnull align 8 dereferenceable(1104) %0) unnamed_addr #4 comdat align 2 {
  %2 = alloca ptr, align 8
  store ptr %0, ptr %2, align 8, !tbaa !122
  %3 = load ptr, ptr %2, align 8
  %4 = getelementptr inbounds nuw %"class.cv::AutoBuffer", ptr %3, i32 0, i32 2
  %5 = getelementptr inbounds [136 x double], ptr %4, i64 0, i64 0
  %6 = getelementptr inbounds nuw %"class.cv::AutoBuffer", ptr %3, i32 0, i32 0
  store ptr %5, ptr %6, align 8, !tbaa !124
  %7 = getelementptr inbounds nuw %"class.cv::AutoBuffer", ptr %3, i32 0, i32 1
  store i64 136, ptr %7, align 8, !tbaa !126
  ret void
}

; Function Attrs: mustprogress uwtable
define void @cvFitEllipse2(ptr dead_on_unwind noalias writable sret(%struct.CvBox2D) align 4 %0, ptr noundef %1) #7 personality ptr @__gxx_personality_v0 {
  %3 = alloca ptr, align 8
  %4 = alloca %"class.cv::AutoBuffer", align 8
  %5 = alloca %"class.cv::Mat", align 8
  %6 = alloca ptr, align 8
  %7 = alloca i32, align 4
  %8 = alloca %"class.cv::RotatedRect", align 4
  %9 = alloca %"class.cv::_InputArray", align 8
  store ptr %1, ptr %3, align 8, !tbaa !119
  call void @llvm.lifetime.start.p0(i64 1104, ptr %4) #18
  call void @_ZN2cv10AutoBufferIdLm136EEC2Ev(ptr noundef nonnull align 8 dereferenceable(1104) %4)
  call void @llvm.lifetime.start.p0(i64 96, ptr %5) #18
  %10 = load ptr, ptr %3, align 8, !tbaa !119
  invoke void @_ZN2cv10cvarrToMatEPKvbbiPNS_10AutoBufferIdLm136EEE(ptr dead_on_unwind writable sret(%"class.cv::Mat") align 8 %5, ptr noundef %10, i1 noundef zeroext false, i1 noundef zeroext false, i32 noundef 0, ptr noundef %4)
          to label %11 unwind label %15

11:                                               ; preds = %2
  call void @llvm.lifetime.start.p0(i64 20, ptr %8) #18
  call void @llvm.lifetime.start.p0(i64 24, ptr %9) #18
  invoke void @_ZN2cv11_InputArrayC2ERKNS_3MatE(ptr noundef nonnull align 8 dereferenceable(24) %9, ptr noundef nonnull align 8 dereferenceable(96) %5)
          to label %12 unwind label %19

12:                                               ; preds = %11
  invoke void @_ZN2cv10fitEllipseERKNS_11_InputArrayE(ptr dead_on_unwind writable sret(%"class.cv::RotatedRect") align 4 %8, ptr noundef nonnull align 8 dereferenceable(24) %9)
          to label %13 unwind label %23

13:                                               ; preds = %12
  invoke void @_ZL7cvBox2DRKN2cv11RotatedRectE(ptr dead_on_unwind writable sret(%struct.CvBox2D) align 4 %0, ptr noundef nonnull align 4 dereferenceable(20) %8)
          to label %14 unwind label %23

14:                                               ; preds = %13
  call void @_ZN2cv11_InputArrayD2Ev(ptr noundef nonnull align 8 dereferenceable(24) %9) #18
  call void @llvm.lifetime.end.p0(i64 24, ptr %9) #18
  call void @llvm.lifetime.end.p0(i64 20, ptr %8) #18
  call void @_ZN2cv3MatD1Ev(ptr noundef nonnull align 8 dereferenceable(96) %5) #18
  call void @llvm.lifetime.end.p0(i64 96, ptr %5) #18
  call void @_ZN2cv10AutoBufferIdLm136EED2Ev(ptr noundef nonnull align 8 dereferenceable(1104) %4) #18
  call void @llvm.lifetime.end.p0(i64 1104, ptr %4) #18
  ret void

15:                                               ; preds = %2
  %16 = landingpad { ptr, i32 }
          cleanup
  %17 = extractvalue { ptr, i32 } %16, 0
  store ptr %17, ptr %6, align 8
  %18 = extractvalue { ptr, i32 } %16, 1
  store i32 %18, ptr %7, align 4
  br label %28

19:                                               ; preds = %11
  %20 = landingpad { ptr, i32 }
          cleanup
  %21 = extractvalue { ptr, i32 } %20, 0
  store ptr %21, ptr %6, align 8
  %22 = extractvalue { ptr, i32 } %20, 1
  store i32 %22, ptr %7, align 4
  br label %27

23:                                               ; preds = %13, %12
  %24 = landingpad { ptr, i32 }
          cleanup
  %25 = extractvalue { ptr, i32 } %24, 0
  store ptr %25, ptr %6, align 8
  %26 = extractvalue { ptr, i32 } %24, 1
  store i32 %26, ptr %7, align 4
  call void @_ZN2cv11_InputArrayD2Ev(ptr noundef nonnull align 8 dereferenceable(24) %9) #18
  br label %27

27:                                               ; preds = %23, %19
  call void @llvm.lifetime.end.p0(i64 24, ptr %9) #18
  call void @llvm.lifetime.end.p0(i64 20, ptr %8) #18
  call void @_ZN2cv3MatD1Ev(ptr noundef nonnull align 8 dereferenceable(96) %5) #18
  br label %28

28:                                               ; preds = %27, %15
  call void @llvm.lifetime.end.p0(i64 96, ptr %5) #18
  call void @_ZN2cv10AutoBufferIdLm136EED2Ev(ptr noundef nonnull align 8 dereferenceable(1104) %4) #18
  call void @llvm.lifetime.end.p0(i64 1104, ptr %4) #18
  br label %29

29:                                               ; preds = %28
  %30 = load ptr, ptr %6, align 8
  %31 = load i32, ptr %7, align 4
  %32 = insertvalue { ptr, i32 } poison, ptr %30, 0
  %33 = insertvalue { ptr, i32 } %32, i32 %31, 1
  resume { ptr, i32 } %33
}