; Function Attrs: mustprogress uwtable
define void @cvFitEllipse2(ptr dead_on_unwind noalias writable writeonly sret(%struct.CvBox2D) align 4 captures(none) %0, ptr noundef %1) local_unnamed_addr #0 personality ptr @__gxx_personality_v0 {
  %3 = alloca %"class.cv::AutoBuffer", align 8
  %4 = alloca %"class.cv::Mat", align 8
  %5 = alloca %"class.cv::RotatedRect", align 16
  %6 = alloca %"class.cv::_InputArray", align 8
  call void @llvm.lifetime.start.p0(i64 1104, ptr nonnull %3) #18
  %7 = getelementptr inbounds nuw i8, ptr %3, i64 16
  store ptr %7, ptr %3, align 8, !tbaa !82
  %8 = getelementptr inbounds nuw i8, ptr %3, i64 8
  store i64 136, ptr %8, align 8, !tbaa !85
  call void @llvm.lifetime.start.p0(i64 96, ptr nonnull %4) #18
  invoke void @_ZN2cv10cvarrToMatEPKvbbiPNS_10AutoBufferIdLm136EEE(ptr dead_on_unwind nonnull writable sret(%"class.cv::Mat") align 8 %4, ptr noundef %1, i1 noundef zeroext false, i1 noundef zeroext false, i32 noundef 0, ptr noundef nonnull %3)
          to label %9 unwind label %22

9:                                                ; preds = %2
  call void @llvm.lifetime.start.p0(i64 20, ptr nonnull %5) #18
  call void @llvm.lifetime.start.p0(i64 24, ptr nonnull %6) #18
  %10 = getelementptr inbounds nuw i8, ptr %6, i64 16
  store i32 0, ptr %10, align 8, !tbaa !53
  %11 = getelementptr inbounds nuw i8, ptr %6, i64 20
  store i32 0, ptr %11, align 4, !tbaa !54
  store i32 16842752, ptr %6, align 8, !tbaa !55
  %12 = getelementptr inbounds nuw i8, ptr %6, i64 8
  store ptr %4, ptr %12, align 8, !tbaa !3
  invoke void @_ZN2cv10fitEllipseERKNS_11_InputArrayE(ptr dead_on_unwind nonnull writable sret(%"class.cv::RotatedRect") align 4 %5, ptr noundef nonnull align 8 dereferenceable(24) %6)
          to label %13 unwind label %24

13:                                               ; preds = %9
  call void @llvm.experimental.noalias.scope.decl(metadata !133)
  %14 = load <4 x float>, ptr %5, align 16, !noalias !133
  %.sroa.0.4.vec.insert.i.i = shufflevector <4 x float> %14, <4 x float> poison, <2 x i32> <i32 0, i32 1>
  store <2 x float> %.sroa.0.4.vec.insert.i.i, ptr %0, align 4, !alias.scope !133
  %.sroa.0.4.vec.insert.i5.i = shufflevector <4 x float> %14, <4 x float> poison, <2 x i32> <i32 2, i32 3>
  %15 = getelementptr inbounds nuw i8, ptr %0, i64 8
  store <2 x float> %.sroa.0.4.vec.insert.i5.i, ptr %15, align 4, !alias.scope !133
  %16 = getelementptr inbounds nuw i8, ptr %5, i64 16
  %17 = load float, ptr %16, align 16, !tbaa !77, !noalias !133
  %18 = getelementptr inbounds nuw i8, ptr %0, i64 16
  store float %17, ptr %18, align 4, !tbaa !136, !alias.scope !133
  call void @llvm.lifetime.end.p0(i64 24, ptr nonnull %6) #18
  call void @llvm.lifetime.end.p0(i64 20, ptr nonnull %5) #18
  call void @_ZN2cv3MatD1Ev(ptr noundef nonnull align 8 dereferenceable(96) %4) #18
  call void @llvm.lifetime.end.p0(i64 96, ptr nonnull %4) #18
  %19 = load ptr, ptr %3, align 8, !tbaa !82
  %.not.i.i = icmp eq ptr %19, %7
  %20 = icmp eq ptr %19, null
  %or.cond = or i1 %.not.i.i, %20
  br i1 %or.cond, label %_ZN2cv10AutoBufferIdLm136EED2Ev.exit, label %21

21:                                               ; preds = %13
  call void @_ZdaPv(ptr noundef nonnull %19) #20
  br label %_ZN2cv10AutoBufferIdLm136EED2Ev.exit

_ZN2cv10AutoBufferIdLm136EED2Ev.exit:             ; preds = %21, %13
  call void @llvm.lifetime.end.p0(i64 1104, ptr nonnull %3) #18
  ret void

22:                                               ; preds = %2
  %23 = landingpad { ptr, i32 }
          cleanup
  br label %26

24:                                               ; preds = %9
  %25 = landingpad { ptr, i32 }
          cleanup
  call void @llvm.lifetime.end.p0(i64 24, ptr nonnull %6) #18
  call void @llvm.lifetime.end.p0(i64 20, ptr nonnull %5) #18
  call void @_ZN2cv3MatD1Ev(ptr noundef nonnull align 8 dereferenceable(96) %4) #18
  br label %26

26:                                               ; preds = %24, %22
  %.pn.pn = phi { ptr, i32 } [ %25, %24 ], [ %23, %22 ]
  call void @llvm.lifetime.end.p0(i64 96, ptr nonnull %4) #18
  %27 = load ptr, ptr %3, align 8, !tbaa !82
  %.not.i.i6 = icmp eq ptr %27, %7
  %28 = icmp eq ptr %27, null
  %or.cond8 = or i1 %.not.i.i6, %28
  br i1 %or.cond8, label %_ZN2cv10AutoBufferIdLm136EED2Ev.exit7, label %29

29:                                               ; preds = %26
  call void @_ZdaPv(ptr noundef nonnull %27) #20
  br label %_ZN2cv10AutoBufferIdLm136EED2Ev.exit7

_ZN2cv10AutoBufferIdLm136EED2Ev.exit7:            ; preds = %29, %26
  call void @llvm.lifetime.end.p0(i64 1104, ptr nonnull %3) #18
  resume { ptr, i32 } %.pn.pn
}